; Function Attrs: nounwind uwtable
define internal range(i32 4, 17) i32 @dissect_diameter_3gpp_sgsn_ipv6_address(ptr noundef %0, ptr readnone captures(none) %1, ptr noundef %2, ptr readnone captures(none) %3) #0 {
  %5 = tail call i32 @tvb_reported_length(ptr noundef %0) #3
  %6 = icmp eq i32 %5, 4
  br i1 %6, label %10, label %7

7:                                                ; preds = %4
  %8 = load i32, ptr @hf_diameter_3gpp_ipv6addr, align 4
  %9 = tail call ptr @proto_tree_add_item(ptr noundef %2, i32 noundef %8, ptr noundef %0, i32 noundef 0, i32 noundef 16, i32 noundef 0) #3
  br label %10

10:                                               ; preds = %4, %7
  %.0 = phi i32 [ 16, %7 ], [ 4, %4 ]
  ret i32 %.0
}